target datalayout = "e-m:e-p270:32:32-p271:32:32-p272:64:64-i64:64-i128:128-f80:128-n8:16:32:64-S128"
target triple = "x86_64-unknown-linux-gnu"

%"class.facebook::velox::HashStringAllocator" = type { %"class.facebook::velox::StreamArena", [3058 x %"class.facebook::velox::CompactDoubleList"], [48 x i64], i64, i64, i64, %"struct.facebook::velox::HashStringAllocator::Position", ptr, %"class.facebook::velox::memory::AllocationPool", %"class.folly::F14FastMap", i64 }
%"class.facebook::velox::StreamArena" = type { ptr, ptr, i64, %"class.std::vector", %"class.facebook::velox::memory::Allocation", i32, i32, %"class.std::vector.8", i64, %"class.std::vector.13" }
%"class.std::vector" = type { %"struct.std::_Vector_base" }
%"struct.std::_Vector_base" = type { %"struct.std::_Vector_base<std::unique_ptr<facebook::velox::memory::Allocation>, std::allocator<std::unique_ptr<facebook::velox::memory::Allocation>>>::_Vector_impl" }
%"struct.std::_Vector_base<std::unique_ptr<facebook::velox::memory::Allocation>, std::allocator<std::unique_ptr<facebook::velox::memory::Allocation>>>::_Vector_impl" = type { %"struct.std::_Vector_base<std::unique_ptr<facebook::velox::memory::Allocation>, std::allocator<std::unique_ptr<facebook::velox::memory::Allocation>>>::_Vector_impl_data" }
%"struct.std::_Vector_base<std::unique_ptr<facebook::velox::memory::Allocation>, std::allocator<std::unique_ptr<facebook::velox::memory::Allocation>>>::_Vector_impl_data" = type { ptr, ptr, ptr }
%"class.facebook::velox::memory::Allocation" = type <{ ptr, %"class.std::vector.3", i32, [4 x i8] }>
%"class.std::vector.3" = type { %"struct.std::_Vector_base.4" }
%"struct.std::_Vector_base.4" = type { %"struct.std::_Vector_base<facebook::velox::memory::Allocation::PageRun, std::allocator<facebook::velox::memory::Allocation::PageRun>>::_Vector_impl" }
%"struct.std::_Vector_base<facebook::velox::memory::Allocation::PageRun, std::allocator<facebook::velox::memory::Allocation::PageRun>>::_Vector_impl" = type { %"struct.std::_Vector_base<facebook::velox::memory::Allocation::PageRun, std::allocator<facebook::velox::memory::Allocation::PageRun>>::_Vector_impl_data" }
%"struct.std::_Vector_base<facebook::velox::memory::Allocation::PageRun, std::allocator<facebook::velox::memory::Allocation::PageRun>>::_Vector_impl_data" = type { ptr, ptr, ptr }
%"class.std::vector.8" = type { %"struct.std::_Vector_base.9" }
%"struct.std::_Vector_base.9" = type { %"struct.std::_Vector_base<facebook::velox::memory::ContiguousAllocation, std::allocator<facebook::velox::memory::ContiguousAllocation>>::_Vector_impl" }
%"struct.std::_Vector_base<facebook::velox::memory::ContiguousAllocation, std::allocator<facebook::velox::memory::ContiguousAllocation>>::_Vector_impl" = type { %"struct.std::_Vector_base<facebook::velox::memory::ContiguousAllocation, std::allocator<facebook::velox::memory::ContiguousAllocation>>::_Vector_impl_data" }
%"struct.std::_Vector_base<facebook::velox::memory::ContiguousAllocation, std::allocator<facebook::velox::memory::ContiguousAllocation>>::_Vector_impl_data" = type { ptr, ptr, ptr }
%"class.std::vector.13" = type { %"struct.std::_Vector_base.14" }
%"struct.std::_Vector_base.14" = type { %"struct.std::_Vector_base<std::__cxx11::basic_string<char>, std::allocator<std::__cxx11::basic_string<char>>>::_Vector_impl" }
%"struct.std::_Vector_base<std::__cxx11::basic_string<char>, std::allocator<std::__cxx11::basic_string<char>>>::_Vector_impl" = type { %"struct.std::_Vector_base<std::__cxx11::basic_string<char>, std::allocator<std::__cxx11::basic_string<char>>>::_Vector_impl_data" }
%"struct.std::_Vector_base<std::__cxx11::basic_string<char>, std::allocator<std::__cxx11::basic_string<char>>>::_Vector_impl_data" = type { ptr, ptr, ptr }
%"class.facebook::velox::CompactDoubleList" = type { i32, i32, i16, i16 }
%"struct.facebook::velox::HashStringAllocator::Position" = type { ptr, ptr }
%"class.facebook::velox::memory::AllocationPool" = type { ptr, %"class.std::vector.18", %"class.std::vector.8", ptr, i64, i64, i64, i64 }
%"class.std::vector.18" = type { %"struct.std::_Vector_base.19" }
%"struct.std::_Vector_base.19" = type { %"struct.std::_Vector_base<facebook::velox::memory::Allocation, std::allocator<facebook::velox::memory::Allocation>>::_Vector_impl" }
%"struct.std::_Vector_base<facebook::velox::memory::Allocation, std::allocator<facebook::velox::memory::Allocation>>::_Vector_impl" = type { %"struct.std::_Vector_base<facebook::velox::memory::Allocation, std::allocator<facebook::velox::memory::Allocation>>::_Vector_impl_data" }
%"struct.std::_Vector_base<facebook::velox::memory::Allocation, std::allocator<facebook::velox::memory::Allocation>>::_Vector_impl_data" = type { ptr, ptr, ptr }
%"class.folly::F14FastMap" = type { %"class.folly::F14ValueMap" }
%"class.folly::F14ValueMap" = type { %"class.folly::f14::detail::F14BasicMap" }
%"class.folly::f14::detail::F14BasicMap" = type { %"class.folly::f14::detail::F14Table" }
%"class.folly::f14::detail::F14Table" = type { ptr, i64, %"struct.folly::f14::detail::SizeAndPackedBegin" }
%"struct.folly::f14::detail::SizeAndPackedBegin" = type { i64, %"class.folly::f14::detail::PackedChunkItemPtr" }
%"class.folly::f14::detail::PackedChunkItemPtr" = type { i64 }

; Function Attrs: mustprogress uwtable
define void @_ZNK8facebook5velox19HashStringAllocator10checkEmptyEv(ptr noundef nonnull align 8 dereferenceable(37416) %this) #0 align 2 {
entry:
  %this.addr = alloca ptr, align 8
  store ptr %this, ptr %this.addr, align 8
  %this1 = load ptr, ptr %this.addr, align 8
  %sizeFromPool_ = getelementptr inbounds %"class.facebook::velox::HashStringAllocator", ptr %this1, i32 0, i32 10
  %0 = load i64, ptr %sizeFromPool_, align 8
  %cmp = icmp eq i64 0, %0
  %lnot = xor i1 %cmp, true
  br i1 %lnot, label %if.then, label %if.end

if.then:                                          ; preds = %entry
  call void @llvm.trap()
  br label %if.end

if.end:                                           ; preds = %if.then, %entry
  %call = call noundef i64 @_ZNK8facebook5velox19HashStringAllocator16checkConsistencyEv(ptr noundef nonnull align 8 dereferenceable(37416) %this1)
  %cmp2 = icmp eq i64 0, %call
  %lnot3 = xor i1 %cmp2, true
  br i1 %lnot3, label %if.then4, label %if.end5

if.then4:                                         ; preds = %if.end
  call void @llvm.trap()
  br label %if.end5

if.end5:                                          ; preds = %if.then4, %if.end
  ret void
}