; Function Attrs: mustprogress uwtable
define void @_ZNK8facebook5velox19HashStringAllocator10checkEmptyEv(ptr noundef nonnull align 8 dereferenceable(37416) %this) local_unnamed_addr #0 align 2 {
entry:
  %sizeFromPool_ = getelementptr inbounds i8, ptr %this, i64 37408
  %0 = load i64, ptr %sizeFromPool_, align 8
  %cmp.not = icmp eq i64 %0, 0
  br i1 %cmp.not, label %if.end, label %if.then

if.then:                                          ; preds = %entry
  tail call void @llvm.trap()
  unreachable

if.end:                                           ; preds = %entry
  %call = tail call noundef i64 @_ZNK8facebook5velox19HashStringAllocator16checkConsistencyEv(ptr noundef nonnull align 8 dereferenceable(37416) %this)
  %cmp2.not = icmp eq i64 %call, 0
  br i1 %cmp2.not, label %if.end5, label %if.then4

if.then4:                                         ; preds = %if.end
  tail call void @llvm.trap()
  unreachable

if.end5:                                          ; preds = %if.end
  ret void
}